target datalayout = "e-m:e-p270:32:32-p271:32:32-p272:64:64-i64:64-i128:128-f80:128-n8:16:32:64-S128"
target triple = "x86_64-unknown-linux-gnu"

%"struct.ClipperLib::OutRec" = type { i32, i8, i8, ptr, ptr, ptr, ptr }

; Function Attrs: mustprogress nounwind uwtable
define hidden void @_ZN10ClipperLib7Clipper14FixHoleLinkageERNS_6OutRecE(ptr noundef nonnull align 8 dereferenceable(135) %this, ptr noundef nonnull align 8 dereferenceable(40) %outrec) #1 align 2 {
entry:
  %this.addr = alloca ptr, align 8
  %outrec.addr = alloca ptr, align 8
  %orfl = alloca ptr, align 8
  store ptr %this, ptr %this.addr, align 8
  store ptr %outrec, ptr %outrec.addr, align 8
  %0 = load ptr, ptr %outrec.addr, align 8
  %FirstLeft = getelementptr inbounds %"struct.ClipperLib::OutRec", ptr %0, i32 0, i32 3
  %1 = load ptr, ptr %FirstLeft, align 8
  %tobool = icmp ne ptr %1, null
  br i1 %tobool, label %lor.lhs.false, label %if.then

lor.lhs.false:                                    ; preds = %entry
  %2 = load ptr, ptr %outrec.addr, align 8
  %IsHole = getelementptr inbounds %"struct.ClipperLib::OutRec", ptr %2, i32 0, i32 1
  %3 = load i8, ptr %IsHole, align 4
  %tobool2 = trunc i8 %3 to i1
  %conv = zext i1 %tobool2 to i32
  %4 = load ptr, ptr %outrec.addr, align 8
  %FirstLeft3 = getelementptr inbounds %"struct.ClipperLib::OutRec", ptr %4, i32 0, i32 3
  %5 = load ptr, ptr %FirstLeft3, align 8
  %IsHole4 = getelementptr inbounds %"struct.ClipperLib::OutRec", ptr %5, i32 0, i32 1
  %6 = load i8, ptr %IsHole4, align 4
  %tobool5 = trunc i8 %6 to i1
  %conv6 = zext i1 %tobool5 to i32
  %cmp = icmp ne i32 %conv, %conv6
  br i1 %cmp, label %land.lhs.true, label %if.end

land.lhs.true:                                    ; preds = %lor.lhs.false
  %7 = load ptr, ptr %outrec.addr, align 8
  %FirstLeft7 = getelementptr inbounds %"struct.ClipperLib::OutRec", ptr %7, i32 0, i32 3
  %8 = load ptr, ptr %FirstLeft7, align 8
  %Pts = getelementptr inbounds %"struct.ClipperLib::OutRec", ptr %8, i32 0, i32 5
  %9 = load ptr, ptr %Pts, align 8
  %tobool8 = icmp ne ptr %9, null
  br i1 %tobool8, label %if.then, label %if.end

if.then:                                          ; preds = %land.lhs.true, %entry
  br label %return

if.end:                                           ; preds = %land.lhs.true, %lor.lhs.false
  %10 = load ptr, ptr %outrec.addr, align 8
  %FirstLeft9 = getelementptr inbounds %"struct.ClipperLib::OutRec", ptr %10, i32 0, i32 3
  %11 = load ptr, ptr %FirstLeft9, align 8
  store ptr %11, ptr %orfl, align 8
  br label %while.cond

while.cond:                                       ; preds = %while.body, %if.end
  %12 = load ptr, ptr %orfl, align 8
  %tobool10 = icmp ne ptr %12, null
  br i1 %tobool10, label %land.rhs, label %land.end

land.rhs:                                         ; preds = %while.cond
  %13 = load ptr, ptr %orfl, align 8
  %IsHole11 = getelementptr inbounds %"struct.ClipperLib::OutRec", ptr %13, i32 0, i32 1
  %14 = load i8, ptr %IsHole11, align 4
  %tobool12 = trunc i8 %14 to i1
  %conv13 = zext i1 %tobool12 to i32
  %15 = load ptr, ptr %outrec.addr, align 8
  %IsHole14 = getelementptr inbounds %"struct.ClipperLib::OutRec", ptr %15, i32 0, i32 1
  %16 = load i8, ptr %IsHole14, align 4
  %tobool15 = trunc i8 %16 to i1
  %conv16 = zext i1 %tobool15 to i32
  %cmp17 = icmp eq i32 %conv13, %conv16
  br i1 %cmp17, label %lor.end, label %lor.rhs

lor.rhs:                                          ; preds = %land.rhs
  %17 = load ptr, ptr %orfl, align 8
  %Pts18 = getelementptr inbounds %"struct.ClipperLib::OutRec", ptr %17, i32 0, i32 5
  %18 = load ptr, ptr %Pts18, align 8
  %tobool19 = icmp ne ptr %18, null
  %lnot = xor i1 %tobool19, true
  br label %lor.end

lor.end:                                          ; preds = %lor.rhs, %land.rhs
  %19 = phi i1 [ true, %land.rhs ], [ %lnot, %lor.rhs ]
  br label %land.end

land.end:                                         ; preds = %lor.end, %while.cond
  %20 = phi i1 [ false, %while.cond ], [ %19, %lor.end ]
  br i1 %20, label %while.body, label %while.end

while.body:                                       ; preds = %land.end
  %21 = load ptr, ptr %orfl, align 8
  %FirstLeft20 = getelementptr inbounds %"struct.ClipperLib::OutRec", ptr %21, i32 0, i32 3
  %22 = load ptr, ptr %FirstLeft20, align 8
  store ptr %22, ptr %orfl, align 8
  br label %while.cond, !llvm.loop !56

while.end:                                        ; preds = %land.end
  %23 = load ptr, ptr %orfl, align 8
  %24 = load ptr, ptr %outrec.addr, align 8
  %FirstLeft21 = getelementptr inbounds %"struct.ClipperLib::OutRec", ptr %24, i32 0, i32 3
  store ptr %23, ptr %FirstLeft21, align 8
  br label %return

return:                                           ; preds = %while.end, %if.then
  ret void
}