; Function Attrs: mustprogress nofree norecurse nosync nounwind memory(read, argmem: readwrite, inaccessiblemem: none) uwtable
define hidden void @_ZN10ClipperLib7Clipper14FixHoleLinkageERNS_6OutRecE(ptr nocapture noundef nonnull readnone align 8 dereferenceable(135) %this, ptr nocapture noundef nonnull align 8 dereferenceable(40) %outrec) local_unnamed_addr #16 align 2 {
entry:
  %FirstLeft = getelementptr inbounds i8, ptr %outrec, i64 8
  %0 = load ptr, ptr %FirstLeft, align 8
  %tobool.not = icmp eq ptr %0, null
  br i1 %tobool.not, label %return, label %lor.lhs.false

lor.lhs.false:                                    ; preds = %entry
  %IsHole = getelementptr inbounds i8, ptr %outrec, i64 4
  %1 = load i8, ptr %IsHole, align 4
  %IsHole4 = getelementptr inbounds i8, ptr %0, i64 4
  %2 = load i8, ptr %IsHole4, align 4
  %3 = xor i8 %2, %1
  %4 = and i8 %3, 1
  %cmp.not = icmp eq i8 %4, 0
  br i1 %cmp.not, label %land.rhs.preheader, label %land.lhs.true

land.lhs.true:                                    ; preds = %lor.lhs.false
  %Pts = getelementptr inbounds i8, ptr %0, i64 24
  %5 = load ptr, ptr %Pts, align 8
  %tobool8.not = icmp eq ptr %5, null
  br i1 %tobool8.not, label %land.rhs.preheader, label %return

land.rhs.preheader:                               ; preds = %lor.lhs.false, %land.lhs.true
  br label %land.rhs

land.rhs:                                         ; preds = %land.rhs.preheader, %while.body
  %orfl.013 = phi ptr [ %orfl.0, %while.body ], [ %0, %land.rhs.preheader ]
  %IsHole11 = getelementptr inbounds i8, ptr %orfl.013, i64 4
  %6 = load i8, ptr %IsHole11, align 4
  %7 = xor i8 %6, %1
  %8 = and i8 %7, 1
  %cmp17 = icmp eq i8 %8, 0
  br i1 %cmp17, label %while.body, label %lor.rhs

lor.rhs:                                          ; preds = %land.rhs
  %Pts18 = getelementptr inbounds i8, ptr %orfl.013, i64 24
  %9 = load ptr, ptr %Pts18, align 8
  %tobool19.not = icmp eq ptr %9, null
  br i1 %tobool19.not, label %while.body, label %while.end

while.body:                                       ; preds = %land.rhs, %lor.rhs
  %FirstLeft20 = getelementptr inbounds i8, ptr %orfl.013, i64 8
  %orfl.0 = load ptr, ptr %FirstLeft20, align 8
  %tobool10.not = icmp eq ptr %orfl.0, null
  br i1 %tobool10.not, label %while.end, label %land.rhs, !llvm.loop !69

while.end:                                        ; preds = %lor.rhs, %while.body
  %orfl.0.lcssa.ph = phi ptr [ %orfl.013, %lor.rhs ], [ null, %while.body ]
  store ptr %orfl.0.lcssa.ph, ptr %FirstLeft, align 8
  br label %return

return:                                           ; preds = %entry, %land.lhs.true, %while.end
  ret void
}